target datalayout = "e-m:e-p270:32:32-p271:32:32-p272:64:64-i64:64-i128:128-f80:128-n8:16:32:64-S128"
target triple = "x86_64-pc-linux-gnu"

%struct.permInfo = type { i32, ptr, i32, i32, ptr, i32, i32 }

; Function Attrs: nounwind uwtable
define i32 @oneBitPosition(i32 noundef %0, i32 noundef %1) #0 {
  %3 = alloca i32, align 4
  %4 = alloca i32, align 4
  %5 = alloca i32, align 4
  %6 = alloca i32, align 4
  %7 = alloca i32, align 4
  store i32 %0, ptr %4, align 4, !tbaa !11
  store i32 %1, ptr %5, align 4, !tbaa !11
  call void @llvm.lifetime.start.p0(i64 4, ptr %6) #7
  store i32 0, ptr %6, align 4, !tbaa !11
  br label %8

8:                                                ; preds = %21, %2
  %9 = load i32, ptr %6, align 4, !tbaa !11
  %10 = load i32, ptr %5, align 4, !tbaa !11
  %11 = icmp slt i32 %9, %10
  br i1 %11, label %12, label %24

12:                                               ; preds = %8
  %13 = load i32, ptr %4, align 4, !tbaa !11
  %14 = load i32, ptr %6, align 4, !tbaa !11
  %15 = ashr i32 %13, %14
  %16 = and i32 %15, 1
  %17 = icmp ne i32 %16, 0
  br i1 %17, label %18, label %20

18:                                               ; preds = %12
  %19 = load i32, ptr %6, align 4, !tbaa !11
  store i32 %19, ptr %3, align 4
  store i32 1, ptr %7, align 4
  br label %25

20:                                               ; preds = %12
  br label %21

21:                                               ; preds = %20
  %22 = load i32, ptr %6, align 4, !tbaa !11
  %23 = add nsw i32 %22, 1
  store i32 %23, ptr %6, align 4, !tbaa !11
  br label %8, !llvm.loop !28

24:                                               ; preds = %8
  store i32 -1, ptr %3, align 4
  store i32 1, ptr %7, align 4
  br label %25

25:                                               ; preds = %24, %18
  call void @llvm.lifetime.end.p0(i64 4, ptr %6) #7
  %26 = load i32, ptr %3, align 4
  ret i32 %26
}

; Function Attrs: nounwind uwtable
define void @fillInFlipArray(ptr noundef %0) #0 {
  %2 = alloca ptr, align 8
  %3 = alloca i32, align 4
  %4 = alloca i32, align 4
  %5 = alloca i32, align 4
  store ptr %0, ptr %2, align 8, !tbaa !3
  call void @llvm.lifetime.start.p0(i64 4, ptr %3) #7
  call void @llvm.lifetime.start.p0(i64 4, ptr %4) #7
  store i32 0, ptr %4, align 4, !tbaa !11
  call void @llvm.lifetime.start.p0(i64 4, ptr %5) #7
  store i32 1, ptr %3, align 4, !tbaa !11
  br label %6

6:                                                ; preds = %35, %1
  %7 = load i32, ptr %3, align 4, !tbaa !11
  %8 = load ptr, ptr %2, align 8, !tbaa !3
  %9 = getelementptr inbounds nuw %struct.permInfo, ptr %8, i32 0, i32 6
  %10 = load i32, ptr %9, align 4, !tbaa !29
  %11 = icmp sle i32 %7, %10
  br i1 %11, label %12, label %38

12:                                               ; preds = %6
  %13 = load i32, ptr %3, align 4, !tbaa !11
  %14 = load i32, ptr %3, align 4, !tbaa !11
  %15 = ashr i32 %14, 1
  %16 = xor i32 %13, %15
  store i32 %16, ptr %5, align 4, !tbaa !11
  %17 = load i32, ptr %4, align 4, !tbaa !11
  %18 = load i32, ptr %5, align 4, !tbaa !11
  %19 = xor i32 %17, %18
  %20 = load ptr, ptr %2, align 8, !tbaa !3
  %21 = getelementptr inbounds nuw %struct.permInfo, ptr %20, i32 0, i32 0
  %22 = load i32, ptr %21, align 8, !tbaa !24
  %23 = call i32 @oneBitPosition(i32 noundef %19, i32 noundef %22)
  %24 = load ptr, ptr %2, align 8, !tbaa !3
  %25 = getelementptr inbounds nuw %struct.permInfo, ptr %24, i32 0, i32 4
  %26 = load ptr, ptr %25, align 8, !tbaa !30
  %27 = load ptr, ptr %2, align 8, !tbaa !3
  %28 = getelementptr inbounds nuw %struct.permInfo, ptr %27, i32 0, i32 6
  %29 = load i32, ptr %28, align 4, !tbaa !29
  %30 = load i32, ptr %3, align 4, !tbaa !11
  %31 = sub nsw i32 %29, %30
  %32 = sext i32 %31 to i64
  %33 = getelementptr inbounds i32, ptr %26, i64 %32
  store i32 %23, ptr %33, align 4, !tbaa !11
  %34 = load i32, ptr %5, align 4, !tbaa !11
  store i32 %34, ptr %4, align 4, !tbaa !11
  br label %35

35:                                               ; preds = %12
  %36 = load i32, ptr %3, align 4, !tbaa !11
  %37 = add nsw i32 %36, 1
  store i32 %37, ptr %3, align 4, !tbaa !11
  br label %6, !llvm.loop !31

38:                                               ; preds = %6
  call void @llvm.lifetime.end.p0(i64 4, ptr %5) #7
  call void @llvm.lifetime.end.p0(i64 4, ptr %4) #7
  call void @llvm.lifetime.end.p0(i64 4, ptr %3) #7
  ret void
}

; Function Attrs: inlinehint nounwind uwtable
define internal i32 @factorial(i32 noundef %0) #3 {
  %2 = alloca i32, align 4
  store i32 %0, ptr %2, align 4, !tbaa !11
  %3 = load i32, ptr %2, align 4, !tbaa !11
  %4 = icmp eq i32 %3, 1
  br i1 %4, label %8, label %5

5:                                                ; preds = %1
  %6 = load i32, ptr %2, align 4, !tbaa !11
  %7 = icmp eq i32 %6, 0
  br i1 %7, label %8, label %9

8:                                                ; preds = %5, %1
  br label %15

9:                                                ; preds = %5
  %10 = load i32, ptr %2, align 4, !tbaa !11
  %11 = sub nsw i32 %10, 1
  %12 = call i32 @factorial(i32 noundef %11)
  %13 = load i32, ptr %2, align 4, !tbaa !11
  %14 = mul nsw i32 %12, %13
  br label %15

15:                                               ; preds = %9, %8
  %16 = phi i32 [ 1, %8 ], [ %14, %9 ]
  ret i32 %16
}

; Function Attrs: nounwind uwtable
define ptr @setPermInfoPtr(i32 noundef %0) #0 {
  %2 = alloca i32, align 4
  %3 = alloca ptr, align 8
  store i32 %0, ptr %2, align 4, !tbaa !11
  call void @llvm.lifetime.start.p0(i64 8, ptr %3) #7
  %4 = call noalias ptr @malloc(i64 noundef 40) #8
  store ptr %4, ptr %3, align 8, !tbaa !3
  %5 = load ptr, ptr %3, align 8, !tbaa !3
  %6 = getelementptr inbounds nuw %struct.permInfo, ptr %5, i32 0, i32 5
  store i32 0, ptr %6, align 8, !tbaa !32
  %7 = load i32, ptr %2, align 4, !tbaa !11
  %8 = load ptr, ptr %3, align 8, !tbaa !3
  %9 = getelementptr inbounds nuw %struct.permInfo, ptr %8, i32 0, i32 0
  store i32 %7, ptr %9, align 8, !tbaa !24
  %10 = load i32, ptr %2, align 4, !tbaa !11
  %11 = shl i32 1, %10
  %12 = sub nsw i32 %11, 1
  %13 = load ptr, ptr %3, align 8, !tbaa !3
  %14 = getelementptr inbounds nuw %struct.permInfo, ptr %13, i32 0, i32 6
  store i32 %12, ptr %14, align 4, !tbaa !29
  %15 = load ptr, ptr %3, align 8, !tbaa !3
  %16 = getelementptr inbounds nuw %struct.permInfo, ptr %15, i32 0, i32 2
  store i32 0, ptr %16, align 8, !tbaa !33
  %17 = load i32, ptr %2, align 4, !tbaa !11
  %18 = call i32 @factorial(i32 noundef %17)
  %19 = sub nsw i32 %18, 1
  %20 = load ptr, ptr %3, align 8, !tbaa !3
  %21 = getelementptr inbounds nuw %struct.permInfo, ptr %20, i32 0, i32 3
  store i32 %19, ptr %21, align 4, !tbaa !22
  %22 = load ptr, ptr %3, align 8, !tbaa !3
  %23 = getelementptr inbounds nuw %struct.permInfo, ptr %22, i32 0, i32 6
  %24 = load i32, ptr %23, align 4, !tbaa !29
  %25 = sext i32 %24 to i64
  %26 = mul i64 4, %25
  %27 = call noalias ptr @malloc(i64 noundef %26) #8
  %28 = load ptr, ptr %3, align 8, !tbaa !3
  %29 = getelementptr inbounds nuw %struct.permInfo, ptr %28, i32 0, i32 4
  store ptr %27, ptr %29, align 8, !tbaa !30
  %30 = load ptr, ptr %3, align 8, !tbaa !3
  %31 = getelementptr inbounds nuw %struct.permInfo, ptr %30, i32 0, i32 3
  %32 = load i32, ptr %31, align 4, !tbaa !22
  %33 = sext i32 %32 to i64
  %34 = mul i64 4, %33
  %35 = call noalias ptr @malloc(i64 noundef %34) #8
  %36 = load ptr, ptr %3, align 8, !tbaa !3
  %37 = getelementptr inbounds nuw %struct.permInfo, ptr %36, i32 0, i32 1
  store ptr %35, ptr %37, align 8, !tbaa !25
  %38 = load ptr, ptr %3, align 8, !tbaa !3
  call void @fillInSwapArray(ptr noundef %38)
  %39 = load ptr, ptr %3, align 8, !tbaa !3
  call void @fillInFlipArray(ptr noundef %39)
  %40 = load ptr, ptr %3, align 8, !tbaa !3
  call void @llvm.lifetime.end.p0(i64 8, ptr %3) #7
  ret ptr %40
}