; Function Attrs: nounwind uwtable
define noalias noundef ptr @setPermInfoPtr(i32 noundef %0) local_unnamed_addr #1 {
  %2 = tail call noalias dereferenceable_or_null(40) ptr @malloc(i64 noundef 40) #10
  %3 = getelementptr inbounds nuw i8, ptr %2, i64 32
  store i32 0, ptr %3, align 8, !tbaa !30
  store i32 %0, ptr %2, align 8, !tbaa !23
  %notmask = shl nsw i32 -1, %0
  %4 = xor i32 %notmask, -1
  %5 = getelementptr inbounds nuw i8, ptr %2, i64 36
  store i32 %4, ptr %5, align 4, !tbaa !27
  %6 = getelementptr inbounds nuw i8, ptr %2, i64 16
  store i32 0, ptr %6, align 8, !tbaa !31
  %or.cond5.i = icmp ult i32 %0, 2
  br i1 %or.cond5.i, label %factorial.exit, label %tailrecurse.i

tailrecurse.i:                                    ; preds = %1, %tailrecurse.i
  %.tr7.i = phi i32 [ %7, %tailrecurse.i ], [ %0, %1 ]
  %accumulator.tr6.i = phi i32 [ %8, %tailrecurse.i ], [ 1, %1 ]
  %7 = add nsw i32 %.tr7.i, -1
  %8 = mul nsw i32 %accumulator.tr6.i, %.tr7.i
  %or.cond.i = icmp ult i32 %.tr7.i, 3
  br i1 %or.cond.i, label %factorial.exit.loopexit, label %tailrecurse.i

factorial.exit.loopexit:                          ; preds = %tailrecurse.i
  %9 = add nsw i32 %8, -1
  br label %factorial.exit

factorial.exit:                                   ; preds = %factorial.exit.loopexit, %1
  %accumulator.tr.lcssa.i = phi i32 [ 0, %1 ], [ %9, %factorial.exit.loopexit ]
  %10 = getelementptr inbounds nuw i8, ptr %2, i64 20
  store i32 %accumulator.tr.lcssa.i, ptr %10, align 4, !tbaa !21
  %11 = zext nneg i32 %4 to i64
  %12 = shl nuw nsw i64 %11, 2
  %13 = tail call noalias ptr @malloc(i64 noundef %12) #10
  %14 = getelementptr inbounds nuw i8, ptr %2, i64 24
  store ptr %13, ptr %14, align 8, !tbaa !28
  %15 = sext i32 %accumulator.tr.lcssa.i to i64
  %16 = shl nsw i64 %15, 2
  %17 = tail call noalias ptr @malloc(i64 noundef %16) #10
  %18 = getelementptr inbounds nuw i8, ptr %2, i64 8
  store ptr %17, ptr %18, align 8, !tbaa !25
  tail call void @fillInSwapArray(ptr noundef nonnull %2)
  %.not12.i = icmp eq i32 %0, 0
  br i1 %.not12.i, label %fillInFlipArray.exit, label %.lr.ph.i.preheader

.lr.ph.i.preheader:                               ; preds = %factorial.exit
  %19 = icmp sgt i32 %0, 0
  br i1 %19, label %.lr.ph.i.us.preheader, label %.lr.ph.i.preheader14

.lr.ph.i.preheader14:                             ; preds = %.lr.ph.i.preheader
  %20 = add nsw i64 %12, -4
  %21 = tail call i32 @llvm.usub.sat.i32(i32 %4, i32 1)
  %22 = zext nneg i32 %21 to i64
  %23 = shl nuw nsw i64 %22, 2
  %24 = sub nsw i64 %20, %23
  %scevgep = getelementptr i8, ptr %13, i64 %24
  %umax16 = tail call i64 @llvm.umax.i64(i64 %11, i64 1)
  %25 = shl nuw nsw i64 %umax16, 2
  tail call void @llvm.memset.p0.i64(ptr noundef nonnull align 4 dereferenceable(1) %scevgep, i8 -1, i64 %25, i1 false), !tbaa !15
  br label %fillInFlipArray.exit

.lr.ph.i.us.preheader:                            ; preds = %.lr.ph.i.preheader
  %26 = zext nneg i32 %4 to i64
  %umax19 = tail call i32 @llvm.umax.i32(i32 %4, i32 1)
  %27 = add nuw i32 %umax19, 1
  %wide.trip.count = zext i32 %27 to i64
  br label %.lr.ph.i.us

.lr.ph.i.us:                                      ; preds = %.lr.ph.i.us.preheader, %oneBitPosition.exit.i.loopexit.us
  %indvars.iv = phi i64 [ 1, %.lr.ph.i.us.preheader ], [ %indvars.iv.next, %oneBitPosition.exit.i.loopexit.us ]
  %.01113.i.us = phi i32 [ 0, %.lr.ph.i.us.preheader ], [ %30, %oneBitPosition.exit.i.loopexit.us ]
  %28 = trunc nuw nsw i64 %indvars.iv to i32
  %29 = lshr i32 %28, 1
  %30 = xor i32 %29, %28
  %31 = xor i32 %30, %.01113.i.us
  br label %.lr.ph.i.i.us

.lr.ph.i.i.us:                                    ; preds = %.lr.ph.i.us, %34
  %.08.i.i.us = phi i32 [ %35, %34 ], [ 0, %.lr.ph.i.us ]
  %32 = shl nuw i32 1, %.08.i.i.us
  %33 = and i32 %32, %31
  %.not.i.i.us = icmp eq i32 %33, 0
  br i1 %.not.i.i.us, label %34, label %oneBitPosition.exit.i.loopexit.us

34:                                               ; preds = %.lr.ph.i.i.us
  %35 = add nuw nsw i32 %.08.i.i.us, 1
  %exitcond.not.i.i.us = icmp eq i32 %35, %0
  br i1 %exitcond.not.i.i.us, label %oneBitPosition.exit.i.loopexit.us, label %.lr.ph.i.i.us, !llvm.loop !26

oneBitPosition.exit.i.loopexit.us:                ; preds = %34, %.lr.ph.i.i.us
  %.07.i.i.ph.us = phi i32 [ -1, %34 ], [ %.08.i.i.us, %.lr.ph.i.i.us ]
  %36 = sub nsw i64 %26, %indvars.iv
  %37 = getelementptr inbounds i32, ptr %13, i64 %36
  store i32 %.07.i.i.ph.us, ptr %37, align 4, !tbaa !15
  %indvars.iv.next = add nuw nsw i64 %indvars.iv, 1
  %exitcond.not = icmp eq i64 %indvars.iv.next, %wide.trip.count
  br i1 %exitcond.not, label %fillInFlipArray.exit, label %.lr.ph.i.us, !llvm.loop !29

fillInFlipArray.exit:                             ; preds = %oneBitPosition.exit.i.loopexit.us, %.lr.ph.i.preheader14, %factorial.exit
  ret ptr %2
}